target datalayout = "e-m:e-p270:32:32-p271:32:32-p272:64:64-i64:64-i128:128-f80:128-n8:16:32:64-S128"
target triple = "x86_64-unknown-linux-gnu"

%"class.absl::lts_20230802::Span" = type { ptr, i64 }
%struct.gsec_aes_gcm_aead_crypter = type { %struct.gsec_aead_crypter, i64, i64, ptr, ptr }
%struct.gsec_aead_crypter = type { ptr }

@.str.35 = private unnamed_addr constant [23 x i8] c"key_length is nullptr.\00", align 1

; Function Attrs: mustprogress nounwind uwtable
define linkonce_odr noundef i64 @_ZNK4absl12lts_202308024SpanIKhE4sizeEv(ptr noundef nonnull align 8 dereferenceable(16) %this) #1 comdat align 2 {
entry:
  %this.addr = alloca ptr, align 8
  store ptr %this, ptr %this.addr, align 8
  %this1 = load ptr, ptr %this.addr, align 8
  %len_ = getelementptr inbounds %"class.absl::lts_20230802::Span", ptr %this1, i32 0, i32 1
  %0 = load i64, ptr %len_, align 8
  ret i64 %0
}

; Function Attrs: mustprogress uwtable
define internal noundef i32 @_ZL36gsec_aes_gcm_aead_crypter_key_lengthPK17gsec_aead_crypterPmPPc(ptr noundef %crypter, ptr noundef %key_length, ptr noundef %error_details) #0 {
entry:
  %retval = alloca i32, align 4
  %crypter.addr = alloca ptr, align 8
  %key_length.addr = alloca ptr, align 8
  %error_details.addr = alloca ptr, align 8
  %aes_gcm_crypter = alloca ptr, align 8
  %ref.tmp = alloca %"class.absl::lts_20230802::Span", align 8
  store ptr %crypter, ptr %crypter.addr, align 8
  store ptr %key_length, ptr %key_length.addr, align 8
  store ptr %error_details, ptr %error_details.addr, align 8
  %0 = load ptr, ptr %key_length.addr, align 8
  %cmp = icmp eq ptr %0, null
  br i1 %cmp, label %if.then, label %if.end

if.then:                                          ; preds = %entry
  %1 = load ptr, ptr %error_details.addr, align 8
  call void @_ZL21aes_gcm_format_errorsPKcPPc(ptr noundef @.str.35, ptr noundef %1)
  store i32 3, ptr %retval, align 4
  br label %return

if.end:                                           ; preds = %entry
  %2 = load ptr, ptr %crypter.addr, align 8
  store ptr %2, ptr %aes_gcm_crypter, align 8
  %3 = load ptr, ptr %aes_gcm_crypter, align 8
  %gsec_key = getelementptr inbounds %struct.gsec_aes_gcm_aead_crypter, ptr %3, i32 0, i32 4
  %4 = load ptr, ptr %gsec_key, align 8
  %vtable = load ptr, ptr %4, align 8
  %vfn = getelementptr inbounds ptr, ptr %vtable, i64 3
  %5 = load ptr, ptr %vfn, align 8
  %call = call { ptr, i64 } %5(ptr noundef nonnull align 8 dereferenceable(8) %4)
  %6 = getelementptr inbounds { ptr, i64 }, ptr %ref.tmp, i32 0, i32 0
  %7 = extractvalue { ptr, i64 } %call, 0
  store ptr %7, ptr %6, align 8
  %8 = getelementptr inbounds { ptr, i64 }, ptr %ref.tmp, i32 0, i32 1
  %9 = extractvalue { ptr, i64 } %call, 1
  store i64 %9, ptr %8, align 8
  %call1 = call noundef i64 @_ZNK4absl12lts_202308024SpanIKhE4sizeEv(ptr noundef nonnull align 8 dereferenceable(16) %ref.tmp) #12
  %10 = load ptr, ptr %key_length.addr, align 8
  store i64 %call1, ptr %10, align 8
  store i32 0, ptr %retval, align 4
  br label %return

return:                                           ; preds = %if.end, %if.then
  %11 = load i32, ptr %retval, align 4
  ret i32 %11
}