; Function Attrs: mustprogress uwtable
define internal noundef i32 @_ZL36gsec_aes_gcm_aead_crypter_key_lengthPK17gsec_aead_crypterPmPPc(ptr nocapture noundef readonly %crypter, ptr noundef writeonly %key_length, ptr noundef %error_details) #0 {
entry:
  %cmp = icmp eq ptr %key_length, null
  br i1 %cmp, label %if.then, label %if.end

if.then:                                          ; preds = %entry
  tail call fastcc void @_ZL21aes_gcm_format_errorsPKcPPc(ptr noundef nonnull @.str.35, ptr noundef %error_details)
  br label %return

if.end:                                           ; preds = %entry
  %gsec_key = getelementptr inbounds i8, ptr %crypter, i64 32
  %0 = load ptr, ptr %gsec_key, align 8
  %vtable = load ptr, ptr %0, align 8
  %vfn = getelementptr inbounds i8, ptr %vtable, i64 24
  %1 = load ptr, ptr %vfn, align 8
  %call = tail call { ptr, i64 } %1(ptr noundef nonnull align 8 dereferenceable(8) %0)
  %2 = extractvalue { ptr, i64 } %call, 1
  store i64 %2, ptr %key_length, align 8
  br label %return

return:                                           ; preds = %if.end, %if.then
  %retval.0 = phi i32 [ 3, %if.then ], [ 0, %if.end ]
  ret i32 %retval.0
}